; Function Attrs: mustprogress uwtable
define hidden void @_ZN4cvc58internal6theory11quantifiers17TheoryQuantifiers8presolveEv(ptr nocapture noundef nonnull readonly align 8 dereferenceable(1776) %this) unnamed_addr #3 align 2 {
cond.end:
  %d_quantEngine.i = getelementptr inbounds i8, ptr %this, i64 192
  %0 = load ptr, ptr %d_quantEngine.i, align 8
  %tobool.not = icmp eq ptr %0, null
  br i1 %tobool.not, label %if.end, label %if.then

if.then:                                          ; preds = %cond.end
  tail call void @_ZN4cvc58internal6theory17QuantifiersEngine8presolveEv(ptr noundef nonnull align 8 dereferenceable(356) %0)
  br label %if.end

if.end:                                           ; preds = %if.then, %cond.end
  ret void
}